(lp0
(S'Physical'
p1
(lp2
S'-Maps '
p3
aV-Canada\u2019s physical features
p4
aS'-Land'
p5
aS'-The world'
p6
aS'-Vegetation '
p7
aS'-Oceans and lakes'
p8
aS'-Natural resources '
p9
aS'-Human'
p10
aS'-Trade (import, export)'
p11
aS'-Cities (how they form)'
p12
aS'-Where the live and why they live there'
p13
aS'-Transportation  '
p14
atp15
a.