(lp0
(iget_text
FlashCard
p1
(dp2
S'answer'
p3
S' A set of instructions for the program to follow '
p4
sS'image'
p5
S'none'
p6
sS'question'
p7
S'Functions'
p8
sba(iget_text
FlashCard
p9
(dp10
g3
S' Definition bla bla bla bla bla bla bla '
p11
sg5
g6
sg7
S'Class'
p12
sba(iget_text
FlashCard
p13
(dp14
g3
(lp15
S'-Memes'
p16
aS'-More Memes'
p17
aS'-Dank Memes '
p18
asg5
g6
sg7
S'Steps To Make A Great Program'
p19
sba(iget_text
FlashCard
p20
(dp21
g3
S' BAD'
p22
sg5
g6
sg7
S'Physics'
p23
sba(iget_text
FlashCard
p24
(dp25
g3
(lp26
S'-First'
p27
aS'-Second'
p28
aS'-Third '
p29
asg5
g6
sg7
S'Another List Test'
p30
sba(iget_text
FlashCard
p31
(dp32
g3
S' Amazing '
p33
sg5
g6
sg7
S'Memes'
p34
sba(iget_text
FlashCard
p35
(dp36
g3
(lp37
S'-Hello World '
p38
aS'-Memes'
p39
aS'-Please Stop Asking Me Questions '
p40
asg5
g6
sg7
S'Another Test listzzz'
p41
sba.